target datalayout = "e-m:e-p270:32:32-p271:32:32-p272:64:64-i64:64-i128:128-f80:128-n8:16:32:64-S128"
target triple = "x86_64-pc-linux-gnu"

%struct.htbl_t = type { i64, i64, i64, i64 }

@H5PT_ptable_id_type = internal global i32 -2, align 4
@H5_libinit_g = external global i8, align 1
@H5_libterm_g = external global i8, align 1
@H5P_CLS_DATASET_CREATE_ID_g = external global i64, align 8
@H5PT_ptable_count = internal global i64 0, align 8

; Function Attrs: nounwind uwtable
define internal i32 @H5PT_create_index(ptr noundef %0) #0 {
  %2 = alloca i32, align 4
  %3 = alloca ptr, align 8
  store ptr %0, ptr %3, align 8, !tbaa !10
  %4 = load ptr, ptr %3, align 8, !tbaa !10
  %5 = icmp ne ptr %4, null
  br i1 %5, label %6, label %9

6:                                                ; preds = %1
  %7 = load ptr, ptr %3, align 8, !tbaa !10
  %8 = getelementptr inbounds nuw %struct.htbl_t, ptr %7, i32 0, i32 2
  store i64 0, ptr %8, align 8, !tbaa !21
  store i32 0, ptr %2, align 4
  br label %10

9:                                                ; preds = %1
  store i32 -1, ptr %2, align 4
  br label %10

10:                                               ; preds = %9, %6
  %11 = load i32, ptr %2, align 4
  ret i32 %11
}

; Function Attrs: nounwind uwtable
define i64 @H5PTcreate(i64 noundef %0, ptr noundef %1, i64 noundef %2, i64 noundef %3, i64 noundef %4) #0 {
  %6 = alloca i64, align 8
  %7 = alloca i64, align 8
  %8 = alloca ptr, align 8
  %9 = alloca i64, align 8
  %10 = alloca i64, align 8
  %11 = alloca i64, align 8
  %12 = alloca ptr, align 8
  %13 = alloca i64, align 8
  %14 = alloca i64, align 8
  %15 = alloca i64, align 8
  %16 = alloca [1 x i64], align 8
  %17 = alloca [1 x i64], align 8
  %18 = alloca [1 x i64], align 8
  %19 = alloca i64, align 8
  %20 = alloca i32, align 4
  store i64 %0, ptr %7, align 8, !tbaa !3
  store ptr %1, ptr %8, align 8, !tbaa !7
  store i64 %2, ptr %9, align 8, !tbaa !3
  store i64 %3, ptr %10, align 8, !tbaa !3
  store i64 %4, ptr %11, align 8, !tbaa !3
  call void @llvm.lifetime.start.p0(i64 8, ptr %12) #6
  store ptr null, ptr %12, align 8, !tbaa !10
  call void @llvm.lifetime.start.p0(i64 8, ptr %13) #6
  store i64 -1, ptr %13, align 8, !tbaa !3
  call void @llvm.lifetime.start.p0(i64 8, ptr %14) #6
  store i64 -1, ptr %14, align 8, !tbaa !3
  call void @llvm.lifetime.start.p0(i64 8, ptr %15) #6
  store i64 -1, ptr %15, align 8, !tbaa !3
  call void @llvm.lifetime.start.p0(i64 8, ptr %16) #6
  call void @llvm.lifetime.start.p0(i64 8, ptr %17) #6
  call void @llvm.lifetime.start.p0(i64 8, ptr %18) #6
  call void @llvm.lifetime.start.p0(i64 8, ptr %19) #6
  store i64 -1, ptr %19, align 8, !tbaa !3
  %21 = load ptr, ptr %8, align 8, !tbaa !7
  %22 = icmp eq ptr %21, null
  br i1 %22, label %23, label %24

23:                                               ; preds = %5
  br label %135

24:                                               ; preds = %5
  %25 = load i32, ptr @H5PT_ptable_id_type, align 4, !tbaa !11
  %26 = icmp slt i32 %25, 0
  br i1 %26, label %27, label %32

27:                                               ; preds = %24
  %28 = call i32 @H5Iregister_type2(i32 noundef 0, ptr noundef @H5PT_free_id)
  store i32 %28, ptr @H5PT_ptable_id_type, align 4, !tbaa !11
  %29 = icmp slt i32 %28, 0
  br i1 %29, label %30, label %31

30:                                               ; preds = %27
  br label %135

31:                                               ; preds = %27
  br label %32

32:                                               ; preds = %31, %24
  %33 = call noalias ptr @malloc(i64 noundef 32) #7
  store ptr %33, ptr %12, align 8, !tbaa !10
  %34 = load ptr, ptr %12, align 8, !tbaa !10
  %35 = icmp eq ptr %34, null
  br i1 %35, label %36, label %37

36:                                               ; preds = %32
  br label %135

37:                                               ; preds = %32
  %38 = load ptr, ptr %12, align 8, !tbaa !10
  %39 = getelementptr inbounds nuw %struct.htbl_t, ptr %38, i32 0, i32 0
  store i64 -1, ptr %39, align 8, !tbaa !13
  %40 = load ptr, ptr %12, align 8, !tbaa !10
  %41 = getelementptr inbounds nuw %struct.htbl_t, ptr %40, i32 0, i32 1
  store i64 -1, ptr %41, align 8, !tbaa !15
  %42 = getelementptr inbounds [1 x i64], ptr %16, i64 0, i64 0
  store i64 0, ptr %42, align 8, !tbaa !3
  %43 = load i64, ptr %10, align 8, !tbaa !3
  %44 = getelementptr inbounds [1 x i64], ptr %17, i64 0, i64 0
  store i64 %43, ptr %44, align 8, !tbaa !3
  %45 = getelementptr inbounds [1 x i64], ptr %18, i64 0, i64 0
  store i64 -1, ptr %45, align 8, !tbaa !3
  %46 = getelementptr inbounds [1 x i64], ptr %16, i64 0, i64 0
  %47 = getelementptr inbounds [1 x i64], ptr %18, i64 0, i64 0
  %48 = call i64 @H5Screate_simple(i32 noundef 1, ptr noundef %46, ptr noundef %47)
  store i64 %48, ptr %14, align 8, !tbaa !3
  %49 = icmp slt i64 %48, 0
  br i1 %49, label %50, label %51

50:                                               ; preds = %37
  br label %135

51:                                               ; preds = %37
  %52 = load i64, ptr %11, align 8, !tbaa !3
  %53 = icmp eq i64 %52, 0
  br i1 %53, label %54, label %75

54:                                               ; preds = %51
  %55 = load i8, ptr @H5_libinit_g, align 1, !tbaa !16, !range !18, !noundef !19
  %56 = trunc i8 %55 to i1
  br i1 %56, label %61, label %57

57:                                               ; preds = %54
  %58 = load i8, ptr @H5_libterm_g, align 1, !tbaa !16, !range !18, !noundef !19
  %59 = trunc i8 %58 to i1
  %60 = xor i1 %59, true
  br label %61

61:                                               ; preds = %57, %54
  %62 = phi i1 [ false, %54 ], [ %60, %57 ]
  %63 = xor i1 %62, true
  %64 = xor i1 %63, true
  %65 = zext i1 %64 to i32
  %66 = sext i32 %65 to i64
  %67 = call i64 @llvm.expect.i64(i64 %66, i64 0)
  %68 = icmp ne i64 %67, 0
  br i1 %68, label %69, label %71

69:                                               ; preds = %61
  %70 = call i32 @H5open()
  br label %72

71:                                               ; preds = %61
  br label %72

72:                                               ; preds = %71, %69
  %73 = load i64, ptr @H5P_CLS_DATASET_CREATE_ID_g, align 8, !tbaa !3
  %74 = call i64 @H5Pcreate(i64 noundef %73)
  store i64 %74, ptr %15, align 8, !tbaa !3
  br label %78

75:                                               ; preds = %51
  %76 = load i64, ptr %11, align 8, !tbaa !3
  %77 = call i64 @H5Pcopy(i64 noundef %76)
  store i64 %77, ptr %15, align 8, !tbaa !3
  br label %78

78:                                               ; preds = %75, %72
  %79 = load i64, ptr %10, align 8, !tbaa !3
  %80 = icmp ugt i64 %79, 0
  br i1 %80, label %81, label %88

81:                                               ; preds = %78
  %82 = load i64, ptr %15, align 8, !tbaa !3
  %83 = getelementptr inbounds [1 x i64], ptr %17, i64 0, i64 0
  %84 = call i32 @H5Pset_chunk(i64 noundef %82, i32 noundef 1, ptr noundef %83)
  %85 = icmp slt i32 %84, 0
  br i1 %85, label %86, label %87

86:                                               ; preds = %81
  br label %135

87:                                               ; preds = %81
  br label %88

88:                                               ; preds = %87, %78
  %89 = load i64, ptr %7, align 8, !tbaa !3
  %90 = load ptr, ptr %8, align 8, !tbaa !7
  %91 = load i64, ptr %9, align 8, !tbaa !3
  %92 = load i64, ptr %14, align 8, !tbaa !3
  %93 = load i64, ptr %15, align 8, !tbaa !3
  %94 = call i64 @H5Dcreate2(i64 noundef %89, ptr noundef %90, i64 noundef %91, i64 noundef %92, i64 noundef 0, i64 noundef %93, i64 noundef 0)
  store i64 %94, ptr %13, align 8, !tbaa !3
  %95 = icmp slt i64 %94, 0
  br i1 %95, label %96, label %97

96:                                               ; preds = %88
  br label %135

97:                                               ; preds = %88
  %98 = load i64, ptr %13, align 8, !tbaa !3
  %99 = load ptr, ptr %12, align 8, !tbaa !10
  %100 = getelementptr inbounds nuw %struct.htbl_t, ptr %99, i32 0, i32 0
  store i64 %98, ptr %100, align 8, !tbaa !13
  %101 = load i64, ptr %14, align 8, !tbaa !3
  %102 = call i32 @H5Sclose(i64 noundef %101)
  %103 = icmp slt i32 %102, 0
  br i1 %103, label %104, label %105

104:                                              ; preds = %97
  br label %135

105:                                              ; preds = %97
  %106 = load i64, ptr %15, align 8, !tbaa !3
  %107 = call i32 @H5Pclose(i64 noundef %106)
  %108 = icmp slt i32 %107, 0
  br i1 %108, label %109, label %110

109:                                              ; preds = %105
  br label %135

110:                                              ; preds = %105
  %111 = load i64, ptr %9, align 8, !tbaa !3
  %112 = call i64 @H5Tcopy(i64 noundef %111)
  %113 = load ptr, ptr %12, align 8, !tbaa !10
  %114 = getelementptr inbounds nuw %struct.htbl_t, ptr %113, i32 0, i32 1
  store i64 %112, ptr %114, align 8, !tbaa !15
  %115 = icmp slt i64 %112, 0
  br i1 %115, label %116, label %117

116:                                              ; preds = %110
  br label %135

117:                                              ; preds = %110
  %118 = load ptr, ptr %12, align 8, !tbaa !10
  %119 = call i32 @H5PT_create_index(ptr noundef %118)
  %120 = load ptr, ptr %12, align 8, !tbaa !10
  %121 = getelementptr inbounds nuw %struct.htbl_t, ptr %120, i32 0, i32 3
  store i64 0, ptr %121, align 8, !tbaa !20
  %122 = load i32, ptr @H5PT_ptable_id_type, align 4, !tbaa !11
  %123 = load ptr, ptr %12, align 8, !tbaa !10
  %124 = call i64 @H5Iregister(i32 noundef %122, ptr noundef %123)
  store i64 %124, ptr %19, align 8, !tbaa !3
  %125 = load i64, ptr %19, align 8, !tbaa !3
  %126 = icmp ne i64 %125, -1
  br i1 %126, label %127, label %130

127:                                              ; preds = %117
  %128 = load i64, ptr @H5PT_ptable_count, align 8, !tbaa !3
  %129 = add i64 %128, 1
  store i64 %129, ptr @H5PT_ptable_count, align 8, !tbaa !3
  br label %133

130:                                              ; preds = %117
  %131 = load ptr, ptr %12, align 8, !tbaa !10
  %132 = call i32 @H5PT_close(ptr noundef %131)
  br label %133

133:                                              ; preds = %130, %127
  %134 = load i64, ptr %19, align 8, !tbaa !3
  store i64 %134, ptr %6, align 8
  store i32 1, ptr %20, align 4
  br label %170

135:                                              ; preds = %116, %109, %104, %96, %86, %50, %36, %30, %23
  %136 = load i64, ptr %14, align 8, !tbaa !3
  %137 = icmp ne i64 %136, -1
  br i1 %137, label %138, label %141

138:                                              ; preds = %135
  %139 = load i64, ptr %14, align 8, !tbaa !3
  %140 = call i32 @H5Sclose(i64 noundef %139)
  br label %141

141:                                              ; preds = %138, %135
  %142 = load i64, ptr %15, align 8, !tbaa !3
  %143 = icmp ne i64 %142, -1
  br i1 %143, label %144, label %147

144:                                              ; preds = %141
  %145 = load i64, ptr %15, align 8, !tbaa !3
  %146 = call i32 @H5Pclose(i64 noundef %145)
  br label %147

147:                                              ; preds = %144, %141
  %148 = load i64, ptr %13, align 8, !tbaa !3
  %149 = icmp ne i64 %148, -1
  br i1 %149, label %150, label %153

150:                                              ; preds = %147
  %151 = load i64, ptr %13, align 8, !tbaa !3
  %152 = call i32 @H5Dclose(i64 noundef %151)
  br label %153

153:                                              ; preds = %150, %147
  %154 = load ptr, ptr %12, align 8, !tbaa !10
  %155 = icmp ne ptr %154, null
  br i1 %155, label %156, label %168

156:                                              ; preds = %153
  %157 = load ptr, ptr %12, align 8, !tbaa !10
  %158 = getelementptr inbounds nuw %struct.htbl_t, ptr %157, i32 0, i32 1
  %159 = load i64, ptr %158, align 8, !tbaa !15
  %160 = icmp ne i64 %159, -1
  br i1 %160, label %161, label %166

161:                                              ; preds = %156
  %162 = load ptr, ptr %12, align 8, !tbaa !10
  %163 = getelementptr inbounds nuw %struct.htbl_t, ptr %162, i32 0, i32 1
  %164 = load i64, ptr %163, align 8, !tbaa !15
  %165 = call i32 @H5Tclose(i64 noundef %164)
  br label %166

166:                                              ; preds = %161, %156
  %167 = load ptr, ptr %12, align 8, !tbaa !10
  call void @free(ptr noundef %167) #6
  br label %168

168:                                              ; preds = %166, %153
  %169 = load i64, ptr %19, align 8, !tbaa !3
  store i64 %169, ptr %6, align 8
  store i32 1, ptr %20, align 4
  br label %170

170:                                              ; preds = %168, %133
  call void @llvm.lifetime.end.p0(i64 8, ptr %19) #6
  call void @llvm.lifetime.end.p0(i64 8, ptr %18) #6
  call void @llvm.lifetime.end.p0(i64 8, ptr %17) #6
  call void @llvm.lifetime.end.p0(i64 8, ptr %16) #6
  call void @llvm.lifetime.end.p0(i64 8, ptr %15) #6
  call void @llvm.lifetime.end.p0(i64 8, ptr %14) #6
  call void @llvm.lifetime.end.p0(i64 8, ptr %13) #6
  call void @llvm.lifetime.end.p0(i64 8, ptr %12) #6
  %171 = load i64, ptr %6, align 8
  ret i64 %171
}