; Function Attrs: nounwind uwtable
define i64 @H5PTcreate(i64 noundef %0, ptr noundef %1, i64 noundef %2, i64 noundef %3, i64 noundef %4) local_unnamed_addr #0 {
  %6 = alloca [1 x i64], align 8
  %7 = alloca [1 x i64], align 8
  %8 = alloca [1 x i64], align 8
  call void @llvm.lifetime.start.p0(i64 8, ptr nonnull %6) #7
  call void @llvm.lifetime.start.p0(i64 8, ptr nonnull %7) #7
  call void @llvm.lifetime.start.p0(i64 8, ptr nonnull %8) #7
  %9 = icmp eq ptr %1, null
  br i1 %9, label %.thread103, label %10

10:                                               ; preds = %5
  %11 = load i32, ptr @H5PT_ptable_id_type, align 4, !tbaa !3
  %12 = icmp slt i32 %11, 0
  br i1 %12, label %13, label %16

13:                                               ; preds = %10
  %14 = tail call i32 @H5Iregister_type2(i32 noundef 0, ptr noundef nonnull @H5PT_free_id) #7
  store i32 %14, ptr @H5PT_ptable_id_type, align 4, !tbaa !3
  %15 = icmp slt i32 %14, 0
  br i1 %15, label %.thread103, label %16

16:                                               ; preds = %13, %10
  %17 = tail call noalias dereferenceable_or_null(32) ptr @malloc(i64 noundef 32) #8
  %18 = icmp eq ptr %17, null
  br i1 %18, label %.thread103, label %19

19:                                               ; preds = %16
  %20 = getelementptr inbounds nuw i8, ptr %17, i64 8
  tail call void @llvm.memset.p0.i64(ptr noundef nonnull align 8 dereferenceable(16) %17, i8 -1, i64 16, i1 false)
  store i64 0, ptr %6, align 8, !tbaa !7
  store i64 %3, ptr %7, align 8, !tbaa !7
  store i64 -1, ptr %8, align 8, !tbaa !7
  %21 = call i64 @H5Screate_simple(i32 noundef 1, ptr noundef nonnull %6, ptr noundef nonnull %8) #7
  %22 = icmp slt i64 %21, 0
  br i1 %22, label %63, label %23

23:                                               ; preds = %19
  %24 = icmp eq i64 %4, 0
  br i1 %24, label %25, label %36

25:                                               ; preds = %23
  %26 = load i8, ptr @H5_libinit_g, align 1, !tbaa !9, !range !11, !noundef !12
  %27 = trunc nuw i8 %26 to i1
  %28 = load i8, ptr @H5_libterm_g, align 1, !range !11
  %29 = trunc nuw i8 %28 to i1
  %30 = select i1 %27, i1 true, i1 %29
  br i1 %30, label %33, label %31, !prof !13

31:                                               ; preds = %25
  %32 = call i32 @H5open() #7
  br label %33

33:                                               ; preds = %25, %31
  %34 = load i64, ptr @H5P_CLS_DATASET_CREATE_ID_g, align 8, !tbaa !7
  %35 = call i64 @H5Pcreate(i64 noundef %34) #7
  br label %38

36:                                               ; preds = %23
  %37 = call i64 @H5Pcopy(i64 noundef %4) #7
  br label %38

38:                                               ; preds = %36, %33
  %.1 = phi i64 [ %35, %33 ], [ %37, %36 ]
  %.not = icmp eq i64 %3, 0
  br i1 %.not, label %42, label %39

39:                                               ; preds = %38
  %40 = call i32 @H5Pset_chunk(i64 noundef %.1, i32 noundef 1, ptr noundef nonnull %7) #7
  %41 = icmp slt i32 %40, 0
  br i1 %41, label %65, label %42

42:                                               ; preds = %39, %38
  %43 = call i64 @H5Dcreate2(i64 noundef %0, ptr noundef nonnull %1, i64 noundef %2, i64 noundef %21, i64 noundef 0, i64 noundef %.1, i64 noundef 0) #7
  %44 = icmp slt i64 %43, 0
  br i1 %44, label %65, label %45

45:                                               ; preds = %42
  store i64 %43, ptr %17, align 8, !tbaa !14
  %46 = call i32 @H5Sclose(i64 noundef %21) #7
  %47 = icmp slt i32 %46, 0
  br i1 %47, label %65, label %48

48:                                               ; preds = %45
  %49 = call i32 @H5Pclose(i64 noundef %.1) #7
  %50 = icmp slt i32 %49, 0
  br i1 %50, label %65, label %51

51:                                               ; preds = %48
  %52 = call i64 @H5Tcopy(i64 noundef %2) #7
  store i64 %52, ptr %20, align 8, !tbaa !16
  %53 = icmp slt i64 %52, 0
  br i1 %53, label %65, label %54

54:                                               ; preds = %51
  %55 = getelementptr inbounds nuw i8, ptr %17, i64 16
  call void @llvm.memset.p0.i64(ptr noundef nonnull align 8 dereferenceable(16) %55, i8 0, i64 16, i1 false)
  %56 = load i32, ptr @H5PT_ptable_id_type, align 4, !tbaa !3
  %57 = call i64 @H5Iregister(i32 noundef %56, ptr noundef nonnull %17) #7
  %.not50 = icmp eq i64 %57, -1
  br i1 %.not50, label %61, label %58

58:                                               ; preds = %54
  %59 = load i64, ptr @H5PT_ptable_count, align 8, !tbaa !7
  %60 = add i64 %59, 1
  store i64 %60, ptr @H5PT_ptable_count, align 8, !tbaa !7
  br label %.thread103

61:                                               ; preds = %54
  %62 = call fastcc i32 @H5PT_close(ptr noundef %17)
  br label %.thread103

63:                                               ; preds = %19
  %.not51 = icmp eq i64 %21, -1
  br i1 %.not51, label %.thread96.thread, label %.thread100

.thread100:                                       ; preds = %63
  %64 = call i32 @H5Sclose(i64 noundef %21) #7
  br label %.thread96.thread

65:                                               ; preds = %39, %42, %45, %48, %51
  %66 = phi i64 [ %52, %51 ], [ -1, %48 ], [ -1, %45 ], [ -1, %42 ], [ -1, %39 ]
  %.038.ph = phi i64 [ %43, %51 ], [ %43, %48 ], [ %43, %45 ], [ %43, %42 ], [ -1, %39 ]
  %67 = call i32 @H5Sclose(i64 noundef %21) #7
  %.not52 = icmp eq i64 %.1, -1
  br i1 %.not52, label %70, label %68

68:                                               ; preds = %65
  %69 = call i32 @H5Pclose(i64 noundef %.1) #7
  br label %70

70:                                               ; preds = %68, %65
  %.not53 = icmp eq i64 %.038.ph, -1
  br i1 %.not53, label %.thread96, label %71

71:                                               ; preds = %70
  %72 = call i32 @H5Dclose(i64 noundef %.038.ph) #7
  br label %.thread96

.thread96:                                        ; preds = %70, %71
  %.not55 = icmp eq i64 %66, -1
  br i1 %.not55, label %.thread96.thread, label %73

73:                                               ; preds = %.thread96
  %74 = call i32 @H5Tclose(i64 noundef %66) #7
  br label %.thread96.thread

.thread96.thread:                                 ; preds = %.thread100, %63, %73, %.thread96
  call void @free(ptr noundef nonnull %17) #7
  br label %.thread103

.thread103:                                       ; preds = %5, %13, %16, %.thread96.thread, %58, %61
  %.040 = phi i64 [ -1, %61 ], [ %57, %58 ], [ -1, %.thread96.thread ], [ -1, %16 ], [ -1, %13 ], [ -1, %5 ]
  call void @llvm.lifetime.end.p0(i64 8, ptr nonnull %8) #7
  call void @llvm.lifetime.end.p0(i64 8, ptr nonnull %7) #7
  call void @llvm.lifetime.end.p0(i64 8, ptr nonnull %6) #7
  ret i64 %.040
}